target datalayout = "e-m:e-p270:32:32-p271:32:32-p272:64:64-i64:64-i128:128-f80:128-n8:16:32:64-S128"
target triple = "x86_64-pc-linux-gnu"

@stderr = external global ptr, align 8
@.str.4 = private unnamed_addr constant [68 x i8] c"shell command argument contains a newline or carriage return: \22%s\22\0A\00", align 1

; Function Attrs: nounwind uwtable
define dso_local void @appendShellString(ptr noundef %0, ptr noundef %1) #0 {
  %3 = alloca ptr, align 8
  %4 = alloca ptr, align 8
  store ptr %0, ptr %3, align 8
  store ptr %1, ptr %4, align 8
  %5 = load ptr, ptr %3, align 8
  %6 = load ptr, ptr %4, align 8
  %7 = call zeroext i1 @appendShellStringNoError(ptr noundef %5, ptr noundef %6)
  br i1 %7, label %12, label %8

8:                                                ; preds = %2
  %9 = load ptr, ptr @stderr, align 8
  %10 = load ptr, ptr %4, align 8
  %11 = call i32 (ptr, ptr, ...) @pg_fprintf(ptr noundef %9, ptr noundef @.str.4, ptr noundef %10)
  call void @exit(i32 noundef 1) #10
  unreachable

12:                                               ; preds = %2
  ret void
}