; Function Attrs: nounwind uwtable
define dso_local void @appendShellString(ptr noundef %0, ptr noundef %1) local_unnamed_addr #0 {
  %3 = tail call zeroext i1 @appendShellStringNoError(ptr noundef %0, ptr noundef %1)
  br i1 %3, label %7, label %4

4:                                                ; preds = %2
  %5 = load ptr, ptr @stderr, align 8
  %6 = tail call i32 (ptr, ptr, ...) @pg_fprintf(ptr noundef %5, ptr noundef nonnull @.str.4, ptr noundef %1) #11
  tail call void @exit(i32 noundef 1) #13
  unreachable

7:                                                ; preds = %2
  ret void
}